target datalayout = "e-m:e-p270:32:32-p271:32:32-p272:64:64-i64:64-i128:128-f80:128-n8:16:32:64-S128"
target triple = "x86_64-pc-linux-gnu"

%struct.MPVEncContext = type { %struct.MpegEncContext, %struct.PutBitContext, i32, i32, ptr, i32, i32, i32, i32, i32, i32, i32, i32, ptr, ptr, %struct.FDCTDSPContext, %struct.MpegvideoEncDSPContext, %struct.PixblockDSPContext, %struct.MotionEstContext, i32, i32, ptr, ptr, ptr, ptr, ptr, ptr, [2 x [2 x [2 x ptr]]], [2 x ptr], [2 x [2 x ptr]], ptr, ptr, ptr, ptr, [3 x i64], i32, i32, i32, i32, i32, ptr, ptr, ptr, ptr, ptr, ptr, ptr, [12 x i32], ptr, ptr, ptr, ptr, ptr, ptr, ptr, ptr, [2 x i32], ptr, i32, i32, i32, i32, i32, i32, i32, i32, i32, i32, ptr, ptr, i32, i32, %struct.PutBitContext, %struct.PutBitContext, i32, i32, i32, i32, ptr, ptr, ptr, [2 x ptr], [2 x ptr], [2 x ptr], [2 x ptr], ptr, i32 }
%struct.MpegEncContext = type { ptr, i32, i32, i32, [12 x i32], i32, %struct.ScanTable, %struct.ScanTable, [64 x i8], [64 x i8], ptr, ptr, i32, i32, i32, i32, i32, i32, i32, i32, i32, i32, i32, i32, i32, i32, i32, i32, i32, i32, i32, i32, i64, i64, ptr, %struct.BufferPoolContext, i32, i32, %union.anon, i32, %struct.MPVWorkPicture, %struct.MPVWorkPicture, %struct.MPVWorkPicture, i32, [3 x i32], ptr, [3 x ptr], ptr, ptr, ptr, ptr, ptr, ptr, [3 x ptr], i32, ptr, ptr, ptr, ptr, %struct.ScratchpadContext, i32, i32, i32, i32, i32, i32, %struct.BlockDSPContext, %struct.H264ChromaContext, %struct.HpelDSPContext, %struct.IDCTDSPContext, %struct.QpelDSPContext, %struct.VideoDSPContext, %struct.H263DSPContext, ptr, [2 x [2 x ptr]], i32, i32, [2 x [4 x [2 x i32]]], [2 x [2 x i32]], [2 x [2 x [2 x i32]]], [2 x [64 x i16]], i32, i32, i32, i32, i32, [6 x i32], [6 x i32], [3 x ptr], ptr, [64 x i16], [64 x i16], [64 x i16], [64 x i16], i32, i32, %struct.GetBitContext, i32, i32, i32, i32, i32, i32, i32, i32, i32, i32, i32, i32, i32, i32, i32, i64, i64, i16, i16, i16, i16, i32, i32, i32, i32, i32, i32, i32, i32, i32, [3 x i32], i32, i32, i32, i32, i32, i32, %struct.GetBitContext, i32, [2 x [2 x i32]], i32, i32, i32, i32, i32, i32, i32, i32, i32, i32, i32, i32, i32, i32, [2 x i32], i32, i32, ptr, ptr, ptr, ptr, ptr, i32, i32, %struct.ERContext }
%struct.ScanTable = type { ptr, [64 x i8], [64 x i8] }
%struct.BufferPoolContext = type { ptr, ptr, ptr, ptr, ptr, i32, i32, i32 }
%union.anon = type { [32 x ptr] }
%struct.MPVWorkPicture = type { [3 x ptr], [3 x i64], ptr, ptr, [2 x ptr], ptr, ptr, [2 x ptr], i32 }
%struct.ScratchpadContext = type { ptr, ptr, %union.anon.0, i32 }
%union.anon.0 = type { ptr }
%struct.BlockDSPContext = type { ptr, ptr, [2 x ptr] }
%struct.H264ChromaContext = type { [4 x ptr], [4 x ptr] }
%struct.HpelDSPContext = type { [4 x [4 x ptr]], [4 x [4 x ptr]], [4 x [4 x ptr]], [4 x ptr] }
%struct.IDCTDSPContext = type { ptr, ptr, ptr, ptr, ptr, ptr, [64 x i8], i32, i32 }
%struct.QpelDSPContext = type { [2 x [16 x ptr]], [2 x [16 x ptr]], [2 x [16 x ptr]] }
%struct.VideoDSPContext = type { ptr, ptr }
%struct.H263DSPContext = type { ptr, ptr }
%struct.GetBitContext = type { ptr, ptr, i32, i32, i32 }
%struct.ERContext = type { ptr, ptr, i32, ptr, i32, i32, i32, i64, i64, i32, i32, ptr, ptr, [3 x ptr], ptr, ptr, [2 x [4 x [2 x i32]]], %struct.ERPicture, %struct.ERPicture, %struct.ERPicture, [2 x ptr], [2 x ptr], i16, i16, i32, i32, ptr, ptr }
%struct.ERPicture = type { ptr, ptr, ptr, [2 x ptr], [2 x ptr], ptr, i32 }
%struct.FDCTDSPContext = type { ptr, ptr }
%struct.MpegvideoEncDSPContext = type { ptr, ptr, ptr, ptr, [4 x ptr], ptr }
%struct.PixblockDSPContext = type { ptr, ptr, ptr, ptr }
%struct.MotionEstContext = type { ptr, i32, i32, [4 x [2 x i32]], [4 x [2 x i32]], ptr, ptr, i32, i32, i32, i32, i32, i32, i32, i32, i32, i32, i32, i32, i32, i32, i32, i32, [4 x [4 x ptr]], [4 x [4 x ptr]], i32, i32, i64, i64, i32, [6 x ptr], [6 x ptr], [6 x ptr], [6 x ptr], [2 x [4 x ptr]], ptr, ptr, ptr, ptr, ptr, ptr, ptr, ptr, [64 x i32], [64 x i32] }
%struct.PutBitContext = type { i32, i32, ptr, ptr, ptr }

@.str.3 = private unnamed_addr constant [30 x i8] c"Assertion %s failed at %s:%d\0A\00", align 1
@.str.4 = private unnamed_addr constant [26 x i8] c"size <= 2147483647/8 - 32\00", align 1
@.str.5 = private unnamed_addr constant [22 x i8] c"libavcodec/put_bits.h\00", align 1

; Function Attrs: inlinehint nounwind uwtable
define internal void @init_put_bits(ptr noundef %0, ptr noundef %1, i32 noundef %2) #3 {
  %4 = alloca ptr, align 8
  %5 = alloca ptr, align 8
  %6 = alloca i32, align 4
  store ptr %0, ptr %4, align 8, !tbaa !59
  store ptr %1, ptr %5, align 8, !tbaa !47
  store i32 %2, ptr %6, align 4, !tbaa !49
  %7 = load i32, ptr %6, align 4, !tbaa !49
  %8 = icmp slt i32 %7, 0
  br i1 %8, label %9, label %10

9:                                                ; preds = %3
  store i32 0, ptr %6, align 4, !tbaa !49
  store ptr null, ptr %5, align 8, !tbaa !47
  br label %10

10:                                               ; preds = %9, %3
  %11 = load ptr, ptr %5, align 8, !tbaa !47
  %12 = load ptr, ptr %4, align 8, !tbaa !59
  %13 = getelementptr inbounds nuw %struct.PutBitContext, ptr %12, i32 0, i32 2
  store ptr %11, ptr %13, align 8, !tbaa !62
  %14 = load ptr, ptr %4, align 8, !tbaa !59
  %15 = getelementptr inbounds nuw %struct.PutBitContext, ptr %14, i32 0, i32 2
  %16 = load ptr, ptr %15, align 8, !tbaa !62
  %17 = load i32, ptr %6, align 4, !tbaa !49
  %18 = sext i32 %17 to i64
  %19 = getelementptr inbounds i8, ptr %16, i64 %18
  %20 = load ptr, ptr %4, align 8, !tbaa !59
  %21 = getelementptr inbounds nuw %struct.PutBitContext, ptr %20, i32 0, i32 4
  store ptr %19, ptr %21, align 8, !tbaa !82
  %22 = load ptr, ptr %4, align 8, !tbaa !59
  %23 = getelementptr inbounds nuw %struct.PutBitContext, ptr %22, i32 0, i32 2
  %24 = load ptr, ptr %23, align 8, !tbaa !62
  %25 = load ptr, ptr %4, align 8, !tbaa !59
  %26 = getelementptr inbounds nuw %struct.PutBitContext, ptr %25, i32 0, i32 3
  store ptr %24, ptr %26, align 8, !tbaa !61
  %27 = load ptr, ptr %4, align 8, !tbaa !59
  %28 = getelementptr inbounds nuw %struct.PutBitContext, ptr %27, i32 0, i32 1
  store i32 32, ptr %28, align 4, !tbaa !63
  %29 = load ptr, ptr %4, align 8, !tbaa !59
  %30 = getelementptr inbounds nuw %struct.PutBitContext, ptr %29, i32 0, i32 0
  store i32 0, ptr %30, align 8, !tbaa !83
  ret void
}

; Function Attrs: inlinehint nounwind uwtable
define internal void @set_put_bits_buffer_size(ptr noundef %0, i32 noundef %1) #3 {
  %3 = alloca ptr, align 8
  %4 = alloca i32, align 4
  store ptr %0, ptr %3, align 8, !tbaa !59
  store i32 %1, ptr %4, align 4, !tbaa !49
  br label %5

5:                                                ; preds = %2
  %6 = load i32, ptr %4, align 4, !tbaa !49
  %7 = icmp sle i32 %6, 268435423
  br i1 %7, label %9, label %8

8:                                                ; preds = %5
  call void (ptr, i32, ptr, ...) @av_log(ptr noundef null, i32 noundef 0, ptr noundef @.str.3, ptr noundef @.str.4, ptr noundef @.str.5, i32 noundef 428)
  call void @abort() #11
  unreachable

9:                                                ; preds = %5
  br label %10

10:                                               ; preds = %9
  %11 = load ptr, ptr %3, align 8, !tbaa !59
  %12 = getelementptr inbounds nuw %struct.PutBitContext, ptr %11, i32 0, i32 2
  %13 = load ptr, ptr %12, align 8, !tbaa !62
  %14 = load i32, ptr %4, align 4, !tbaa !49
  %15 = sext i32 %14 to i64
  %16 = getelementptr inbounds i8, ptr %13, i64 %15
  %17 = load ptr, ptr %3, align 8, !tbaa !59
  %18 = getelementptr inbounds nuw %struct.PutBitContext, ptr %17, i32 0, i32 4
  store ptr %16, ptr %18, align 8, !tbaa !82
  ret void
}

; Function Attrs: inlinehint nounwind uwtable
define internal ptr @put_bits_ptr(ptr noundef %0) #3 {
  %2 = alloca ptr, align 8
  store ptr %0, ptr %2, align 8, !tbaa !59
  %3 = load ptr, ptr %2, align 8, !tbaa !59
  %4 = getelementptr inbounds nuw %struct.PutBitContext, ptr %3, i32 0, i32 3
  %5 = load ptr, ptr %4, align 8, !tbaa !61
  ret ptr %5
}

; Function Attrs: nounwind uwtable
define void @ff_mpeg4_init_partitions(ptr noundef %0) #0 {
  %2 = alloca ptr, align 8
  %3 = alloca ptr, align 8
  %4 = alloca ptr, align 8
  %5 = alloca i32, align 4
  %6 = alloca i32, align 4
  %7 = alloca i32, align 4
  store ptr %0, ptr %2, align 8, !tbaa !4
  call void @llvm.lifetime.start.p0(i64 8, ptr %3) #10
  %8 = load ptr, ptr %2, align 8, !tbaa !4
  %9 = getelementptr inbounds nuw %struct.MPVEncContext, ptr %8, i32 0, i32 1
  %10 = call ptr @put_bits_ptr(ptr noundef %9)
  store ptr %10, ptr %3, align 8, !tbaa !47
  call void @llvm.lifetime.start.p0(i64 8, ptr %4) #10
  %11 = load ptr, ptr %2, align 8, !tbaa !4
  %12 = getelementptr inbounds nuw %struct.MPVEncContext, ptr %11, i32 0, i32 1
  %13 = getelementptr inbounds nuw %struct.PutBitContext, ptr %12, i32 0, i32 4
  %14 = load ptr, ptr %13, align 8, !tbaa !81
  store ptr %14, ptr %4, align 8, !tbaa !47
  call void @llvm.lifetime.start.p0(i64 4, ptr %5) #10
  %15 = load ptr, ptr %4, align 8, !tbaa !47
  %16 = load ptr, ptr %3, align 8, !tbaa !47
  %17 = ptrtoint ptr %15 to i64
  %18 = ptrtoint ptr %16 to i64
  %19 = sub i64 %17, %18
  %20 = trunc i64 %19 to i32
  store i32 %20, ptr %5, align 4, !tbaa !49
  call void @llvm.lifetime.start.p0(i64 4, ptr %6) #10
  %21 = load ptr, ptr %3, align 8, !tbaa !47
  %22 = ptrtoint ptr %21 to i64
  %23 = load i32, ptr %5, align 4, !tbaa !49
  %24 = sdiv i32 %23, 3
  %25 = sext i32 %24 to i64
  %26 = add nsw i64 %22, %25
  %27 = and i64 %26, -4
  %28 = load ptr, ptr %3, align 8, !tbaa !47
  %29 = ptrtoint ptr %28 to i64
  %30 = sub nsw i64 %27, %29
  %31 = trunc i64 %30 to i32
  store i32 %31, ptr %6, align 4, !tbaa !49
  call void @llvm.lifetime.start.p0(i64 4, ptr %7) #10
  %32 = load i32, ptr %5, align 4, !tbaa !49
  %33 = load i32, ptr %6, align 4, !tbaa !49
  %34 = mul nsw i32 2, %33
  %35 = sub nsw i32 %32, %34
  %36 = and i32 %35, -4
  store i32 %36, ptr %7, align 4, !tbaa !49
  %37 = load ptr, ptr %2, align 8, !tbaa !4
  %38 = getelementptr inbounds nuw %struct.MPVEncContext, ptr %37, i32 0, i32 1
  %39 = load i32, ptr %6, align 4, !tbaa !49
  call void @set_put_bits_buffer_size(ptr noundef %38, i32 noundef %39)
  %40 = load ptr, ptr %2, align 8, !tbaa !4
  %41 = getelementptr inbounds nuw %struct.MPVEncContext, ptr %40, i32 0, i32 72
  %42 = load ptr, ptr %3, align 8, !tbaa !47
  %43 = load i32, ptr %6, align 4, !tbaa !49
  %44 = sext i32 %43 to i64
  %45 = getelementptr inbounds i8, ptr %42, i64 %44
  %46 = load i32, ptr %7, align 4, !tbaa !49
  call void @init_put_bits(ptr noundef %41, ptr noundef %45, i32 noundef %46)
  %47 = load ptr, ptr %2, align 8, !tbaa !4
  %48 = getelementptr inbounds nuw %struct.MPVEncContext, ptr %47, i32 0, i32 73
  %49 = load ptr, ptr %3, align 8, !tbaa !47
  %50 = load i32, ptr %6, align 4, !tbaa !49
  %51 = sext i32 %50 to i64
  %52 = getelementptr inbounds i8, ptr %49, i64 %51
  %53 = load i32, ptr %7, align 4, !tbaa !49
  %54 = sext i32 %53 to i64
  %55 = getelementptr inbounds i8, ptr %52, i64 %54
  %56 = load i32, ptr %6, align 4, !tbaa !49
  call void @init_put_bits(ptr noundef %48, ptr noundef %55, i32 noundef %56)
  call void @llvm.lifetime.end.p0(i64 4, ptr %7) #10
  call void @llvm.lifetime.end.p0(i64 4, ptr %6) #10
  call void @llvm.lifetime.end.p0(i64 4, ptr %5) #10
  call void @llvm.lifetime.end.p0(i64 8, ptr %4) #10
  call void @llvm.lifetime.end.p0(i64 8, ptr %3) #10
  ret void
}