; Function Attrs: nounwind uwtable
define void @ff_mpeg4_init_partitions(ptr noundef captures(none) %0) local_unnamed_addr #0 {
  %2 = getelementptr i8, ptr %0, i64 4824
  %.val = load ptr, ptr %2, align 8, !tbaa !56
  %3 = getelementptr inbounds nuw i8, ptr %0, i64 4832
  %4 = load ptr, ptr %3, align 8, !tbaa !77
  %5 = ptrtoint ptr %4 to i64
  %6 = ptrtoint ptr %.val to i64
  %7 = sub i64 %5, %6
  %8 = trunc i64 %7 to i32
  %9 = sdiv i32 %8, 3
  %10 = zext i32 %9 to i64
  %11 = add i64 %10, %6
  %12 = and i64 %11, 4294967292
  %13 = sub i64 %12, %6
  %14 = trunc i64 %13 to i32
  %15 = icmp slt i32 %14, 268435424
  br i1 %15, label %set_put_bits_buffer_size.exit, label %16

16:                                               ; preds = %1
  tail call void (ptr, i32, ptr, ...) @av_log(ptr noundef null, i32 noundef 0, ptr noundef nonnull @.str.3, ptr noundef nonnull @.str.4, ptr noundef nonnull @.str.5, i32 noundef 428) #13
  tail call void @abort() #14
  unreachable

set_put_bits_buffer_size.exit:                    ; preds = %1
  %17 = shl nsw i32 %14, 1
  %18 = sub nsw i32 %8, %17
  %19 = and i32 %18, -4
  %20 = getelementptr inbounds nuw i8, ptr %0, i64 4816
  %21 = load ptr, ptr %20, align 8, !tbaa !78
  %sext21 = shl i64 %13, 32
  %22 = ashr exact i64 %sext21, 32
  %23 = getelementptr inbounds i8, ptr %21, i64 %22
  store ptr %23, ptr %3, align 8, !tbaa !59
  %24 = getelementptr inbounds nuw i8, ptr %0, i64 6800
  %25 = getelementptr inbounds i8, ptr %.val, i64 %22
  %26 = icmp slt i32 %18, 0
  %spec.select.i = select i1 %26, ptr null, ptr %25
  %spec.select11.i = tail call i32 @llvm.smax.i32(i32 %19, i32 0)
  %27 = getelementptr inbounds nuw i8, ptr %0, i64 6808
  store ptr %spec.select.i, ptr %27, align 8, !tbaa !78
  %28 = zext nneg i32 %spec.select11.i to i64
  %29 = getelementptr inbounds nuw i8, ptr %spec.select.i, i64 %28
  %30 = getelementptr inbounds nuw i8, ptr %0, i64 6824
  store ptr %29, ptr %30, align 8, !tbaa !59
  %31 = getelementptr inbounds nuw i8, ptr %0, i64 6816
  store ptr %spec.select.i, ptr %31, align 8, !tbaa !56
  %32 = getelementptr inbounds nuw i8, ptr %0, i64 6804
  store i32 32, ptr %32, align 4, !tbaa !57
  store i32 0, ptr %24, align 8, !tbaa !58
  %33 = getelementptr inbounds nuw i8, ptr %0, i64 6832
  %34 = sext i32 %19 to i64
  %35 = getelementptr inbounds i8, ptr %25, i64 %34
  %36 = icmp slt i32 %14, 0
  %spec.select.i19 = select i1 %36, ptr null, ptr %35
  %spec.select11.i20 = tail call i32 @llvm.smax.i32(i32 %14, i32 0)
  %37 = getelementptr inbounds nuw i8, ptr %0, i64 6840
  store ptr %spec.select.i19, ptr %37, align 8, !tbaa !78
  %38 = zext nneg i32 %spec.select11.i20 to i64
  %39 = getelementptr inbounds nuw i8, ptr %spec.select.i19, i64 %38
  %40 = getelementptr inbounds nuw i8, ptr %0, i64 6856
  store ptr %39, ptr %40, align 8, !tbaa !59
  %41 = getelementptr inbounds nuw i8, ptr %0, i64 6848
  store ptr %spec.select.i19, ptr %41, align 8, !tbaa !56
  %42 = getelementptr inbounds nuw i8, ptr %0, i64 6836
  store i32 32, ptr %42, align 4, !tbaa !57
  store i32 0, ptr %33, align 8, !tbaa !58
  ret void
}